(lp0
(lp1
I1
aI2
aI3
aI4
aI5
aI6
aI7
aI8
aI9
aI10
aI11
aI12
aI13
aI14
aI15
aI16
aI17
aI18
aI19
aI20
aI21
aI22
aI23
aI24
aI25
aI26
aI27
aI28
aI29
aI30
aI31
aI32
aI33
aI34
aI35
aI36
aI37
aI38
aI39
aI40
aI41
aI42
aI43
aI44
aI45
aI46
aI47
aI48
aI49
aI50
aI51
aI52
aI53
aI54
aI55
aI56
aI57
aI58
aI59
aI60
aI61
aI62
aI63
aI64
aI65
aI66
aI67
aI68
aI69
aI70
aI71
aI72
aI73
aI74
aI75
aI76
aI77
aI78
aI79
aI80
aI81
aI82
aI83
aI84
aI85
aI86
aI87
aI88
aI89
aI90
aI91
aI92
aI93
aI94
aI95
aI96
aI97
aI98
aI99
aI100
aI101
aI102
aI103
aI104
aI105
aI106
aI107
aI108
aI109
aI110
aI111
aI112
aI113
aI114
aI115
aI116
aI117
aI118
aI119
aI120
aI121
aI122
aI123
aI124
aI125
aI126
aI127
aI128
aI129
aI130
aI131
aI132
aI133
aI134
aI135
aI136
aI137
aI138
aI139
aI140
aI141
aI142
aI143
aI144
aI145
aI146
aI147
aI148
aI149
aI150
aI151
aI152
aI153
aI154
aI155
aI156
aI157
aI158
aI159
aI160
aI161
aI162
aI163
aI164
aI165
aI166
aI167
aI168
aI169
aI170
aI171
aI172
aI173
aI174
aI175
aI176
aI177
aI178
aI179
aI180
aI181
aI182
aI183
aI184
aI185
aI186
aI187
aI188
aI189
aI190
aI191
aI192
aI193
aI194
aI195
aI196
aI197
aI198
aI199
aI200
aI201
aI202
aI203
aI204
aI205
aI206
aI207
aI208
aI209
aI210
aI211
aI212
aI213
aI214
aI215
aI216
aI217
aI218
aI219
aI220
aI221
aa(lp2
F-329.19720458984375
aF-405.3783874511719
aF-206.26654052734375
aF-444.71337890625
aF-522.5187377929688
aF-1003.4243774414062
aF-451.8428039550781
aF-626.86669921875
aF-422.7042236328125
aF-610.6571655273438
aF-148.03024291992188
aF-1018.579833984375
aF-1186.99560546875
aF-1133.993408203125
aF-715.2562255859375
aF-471.9136047363281
aF-611.7427368164062
aF-1200.2130126953125
aF-468.5973815917969
aF-625.8866577148438
aF-169.39505004882812
aF-323.1791687011719
aF-563.6488647460938
aF-1508.3829345703125
aF-290.0655822753906
aF-462.15386962890625
aF-274.00885009765625
aF-382.1843566894531
aF-299.40570068359375
aF368.85369873046875
aF-575.9254760742188
aF-483.2243957519531
aF-846.6026000976562
aF-634.4741821289062
aF-707.5025634765625
aF-762.8176879882812
aF-1017.6043701171875
aF102.7071762084961
aF-223.5970001220703
aF44.32615280151367
aF-128.30502319335938
aF-888.7848510742188
aF-600.5120849609375
aF-365.6475830078125
aF-703.5000610351562
aF-912.3234252929688
aF-852.0519409179688
aF-538.7411499023438
aF-529.1870727539062
aF-356.8385925292969
aF-823.205078125
aF548.430908203125
aF-408.39581298828125
aF-638.9021606445312
aF-184.68878173828125
aF-1082.05615234375
aF-918.328857421875
aF-264.09991455078125
aF-681.02294921875
aF1059.638427734375
aF-159.881103515625
aF-112.29714965820312
aF-320.82733154296875
aF-201.8472442626953
aF-138.7099609375
aF-239.93621826171875
aF149.16123962402344
aF-743.0061645507812
aF-141.21536254882812
aF-667.081298828125
aF-331.2675476074219
aF1201.1251220703125
aF-278.5672912597656
aF179.20716857910156
aF-941.2902221679688
aF151.7906494140625
aF29.224872589111328
aF-326.26263427734375
aF1071.23291015625
aF-394.8781433105469
aF-1.9561188220977783
aF767.2180786132812
aF-414.1627502441406
aF218.06796264648438
aF-531.6605224609375
aF480.58856201171875
aF-111.94805908203125
aF763.8026123046875
aF571.03759765625
aF810.5573120117188
aF-641.2115478515625
aF307.2502136230469
aF109.68773651123047
aF494.40692138671875
aF640.4031982421875
aF55.69347381591797
aF-193.54885864257812
aF-398.2826843261719
aF-192.684814453125
aF-108.3648910522461
aF-369.6575012207031
aF672.776611328125
aF1562.0916748046875
aF-231.26136779785156
aF405.8691711425781
aF-433.8201599121094
aF-463.4488220214844
aF7.297164440155029
aF-446.7756042480469
aF810.582275390625
aF592.2794189453125
aF-350.7912292480469
aF553.6786499023438
aF142.4440155029297
aF371.0999450683594
aF436.6268005371094
aF-671.7545166015625
aF-307.603759765625
aF37.90869903564453
aF363.7201843261719
aF-43.93864822387695
aF-443.4267272949219
aF294.62567138671875
aF-703.7532348632812
aF-139.61672973632812
aF-598.1390991210938
aF-742.3936157226562
aF231.55697631835938
aF742.9705200195312
aF239.0841522216797
aF737.0735473632812
aF4708.7890625
aF4743.29345703125
aF4834.599609375
aF4234.349609375
aF4545.552734375
aF1612.180908203125
aF4983.95947265625
aF5038.28076171875
aF2630.229248046875
aF4830.67626953125
aF4260.7021484375
aF418.8504333496094
aF3660.3271484375
aF3664.29638671875
aF-109.70414733886719
aF490.10955810546875
aF1105.9193115234375
aF9.314327239990234
aF-3.743678331375122
aF100.70896911621094
aF893.1585693359375
aF504.5728454589844
aF556.4526977539062
aF2215.008056640625
aF1307.7398681640625
aF898.6707763671875
aF-79.84119415283203
aF-37.80296325683594
aF1240.3868408203125
aF-76.31302642822266
aF-23.480770111083984
aF13.473770141601562
aF-47.03513717651367
aF692.92578125
aF-6.305544376373291
aF-9.004109382629395
aF61.794376373291016
aF4.40587043762207
aF1688.1240234375
aF3556.13525390625
aF494.96600341796875
aF-39.09793472290039
aF16.735183715820312
aF31.544530868530273
aF42.40960693359375
aF933.6557006835938
aF2553.078125
aF-58.255550384521484
aF38.68816375732422
aF8.481462478637695
aF972.39599609375
aF1612.378662109375
aF161.010986328125
aF437.2903747558594
aF673.4058227539062
aF-73.19270324707031
aF477.3981018066406
aF539.7340698242188
aF-86.10034942626953
aF130.0267333984375
aF-55.17488098144531
aF1162.3287353515625
aF-58.52099609375
aF1045.2611083984375
aF658.1083984375
aF4140.3125
aF-19.439842224121094
aF191.2299041748047
aF1518.1336669921875
aF12.351447105407715
aF995.2977905273438
aF3.1594631671905518
aF5.979794502258301
aF25.611751556396484
aF228.28431701660156
aF3426.654052734375
aF1020.6199951171875
aF1032.4691162109375
aF3827.69482421875
aF3619.849853515625
aF2333.4951171875
aF2773.5302734375
aF-77.37505340576172
aF-97.80644226074219
aF3721.74658203125
aF1758.3541259765625
aF523.4675903320312
aF-1.245998740196228
aF3676.901123046875
aF3897.40673828125
aa(lp3
F0.0
aF2.5497019290924072
aF1.489576816558838
aF-0.4031676948070526
aF-1.4362586736679077
aF-3.752352237701416
aF-5.044180393218994
aF-6.909998416900635
aF-9.851449012756348
aF-11.52907657623291
aF-16.827863693237305
aF-22.164833068847656
aF-28.219472885131836
aF-33.76988983154297
aF-44.13056182861328
aF-44.79426956176758
aF-49.12862777709961
aF-55.72600173950195
aF-57.699676513671875
aF-68.92302703857422
aF-73.00676727294922
aF-90.04739379882812
aF-94.07154083251953
aF-92.97542572021484
aF-102.10935974121094
aF-101.10916900634766
aF-109.79913330078125
aF-108.55025482177734
aF-122.81549835205078
aF-118.54418182373047
aF-117.31013488769531
aF-112.11541748046875
aF-113.5662841796875
aF-121.45577239990234
aF-115.5984115600586
aF-118.66606140136719
aF-115.00248718261719
aF-115.13861846923828
aF-116.77943420410156
aF-116.10784912109375
aF-111.29624938964844
aF-106.45564270019531
aF-109.80831909179688
aF-107.21807861328125
aF-103.44389343261719
aF-97.80207824707031
aF-101.0796127319336
aF-103.86698913574219
aF-102.2402572631836
aF-100.50763702392578
aF-99.02140808105469
aF-95.18663787841797
aF-93.97628021240234
aF-91.42112731933594
aF-89.73641967773438
aF-92.00310516357422
aF-93.8926010131836
aF-92.85187530517578
aF-96.15186309814453
aF-90.35022735595703
aF-97.00677490234375
aF-92.89630126953125
aF-91.30355834960938
aF-94.88882446289062
aF-95.08679962158203
aF-90.54867553710938
aF-89.66693115234375
aF-93.46861267089844
aF-93.37905883789062
aF-93.5407485961914
aF-85.18584442138672
aF-80.10006713867188
aF-81.79325103759766
aF-73.28325653076172
aF-74.04983520507812
aF-70.73683166503906
aF-76.6972427368164
aF-71.71501922607422
aF-66.39772033691406
aF-67.12784576416016
aF-66.53610229492188
aF-65.79295349121094
aF-62.39325714111328
aF-64.85526275634766
aF-61.23316192626953
aF-57.92912292480469
aF-56.41555404663086
aF-56.149959564208984
aF-57.23506546020508
aF-52.344051361083984
aF-47.183555603027344
aF-50.86586380004883
aF-47.198829650878906
aF-50.21891784667969
aF-47.17189407348633
aF-49.83219528198242
aF-44.891624450683594
aF-47.1862907409668
aF-44.38279724121094
aF-41.79861831665039
aF-44.7332763671875
aF-43.99911117553711
aF-39.75687789916992
aF-42.679386138916016
aF-34.496002197265625
aF-47.21351623535156
aF-35.2454833984375
aF-49.63463592529297
aF-45.08583068847656
aF-38.80459213256836
aF-35.25529861450195
aF-31.084394454956055
aF-24.627887725830078
aF-31.275806427001953
aF-23.708799362182617
aF-40.189388275146484
aF-22.330398559570312
aF-16.403133392333984
aF-32.3481559753418
aF-27.456296920776367
aF-33.523826599121094
aF-24.394628524780273
aF-34.786224365234375
aF-43.89698028564453
aF-26.180118560791016
aF-24.250844955444336
aF-18.202213287353516
aF-49.625850677490234
aF-39.67986297607422
aF-14.839484214782715
aF-21.682964324951172
aF-48.97911834716797
aF-2.686570882797241
aF-28.942163467407227
aF-4.578732490539551
aF-44.76747131347656
aF-2.9079172611236572
aF-58.36112594604492
aF-2.4648754596710205
aF0.23823213577270508
aF-8.990692138671875
aF-48.09030532836914
aF5.6244988441467285
aF0.706796407699585
aF-8.551041603088379
aF0.345595121383667
aF3.9754371643066406
aF6.094104766845703
aF-38.25495147705078
aF-24.439374923706055
aF5.609745025634766
aF10.411186218261719
aF-0.5011191368103027
aF9.42685317993164
aF3.7385261058807373
aF13.025367736816406
aF7.200477600097656
aF-37.121551513671875
aF13.355151176452637
aF13.593449592590332
aF14.156634330749512
aF3.0211801528930664
aF9.594747543334961
aF10.921309471130371
aF-61.04206085205078
aF10.38628101348877
aF7.764569282531738
aF6.888455390930176
aF3.9437880516052246
aF-0.5625731945037842
aF2.3299877643585205
aF11.051239013671875
aF10.895872116088867
aF-14.7031888961792
aF-67.81246948242188
aF13.866904258728027
aF-14.588555335998535
aF8.741599082946777
aF7.201391696929932
aF14.923677444458008
aF15.217611312866211
aF16.77198600769043
aF17.196887969970703
aF16.112899780273438
aF17.963680267333984
aF17.675920486450195
aF16.666231155395508
aF16.98645782470703
aF18.695356369018555
aF-43.755863189697266
aF-6.840604782104492
aF19.78398895263672
aF19.593618392944336
aF11.982321739196777
aF11.931726455688477
aF16.673978805541992
aF-39.920005798339844
aF14.540900230407715
aF-0.9590903520584106
aF16.016889572143555
aF17.220670700073242
aF15.482524871826172
aF-17.559505462646484
aF18.888099670410156
aF19.493310928344727
aF19.169893264770508
aF11.624983787536621
aF-16.182701110839844
aF-7.8603434562683105
aF-25.447479248046875
aF6.330824375152588
aF6.075191497802734
aF-72.47315216064453
aF20.3918399810791
aF20.047941207885742
aF20.12558364868164
aF19.901884078979492
aF14.064308166503906
aF-5.434369087219238
aF13.831192016601562
aF0.9888811111450195
aa.