(lp0
(lp1
I1
aI2
aI3
aI4
aI5
aI6
aI7
aI8
aI9
aI10
aI11
aI12
aI13
aI14
aI15
aI16
aI17
aI18
aI19
aI20
aI21
aI22
aI23
aI24
aI25
aI26
aa(lp2
F112.0852279663086
aF-150.0
aF-75.27583312988281
aF-150.0
aF-48.95733642578125
aF-99.94898986816406
aF-7.728640079498291
aF-86.94660949707031
aF41.51490020751953
aF-150.0
aF-150.0
aF-150.0
aF-82.159423828125
aF-150.0
aF-25.723548889160156
aF-143.1517791748047
aF-150.0
aF-19.040016174316406
aF76.65372467041016
aF31.1013126373291
aF83.882568359375
aF-4.94252347946167
aFnan
aF88.79338836669922
aFnan
aF-150.0
aa(lp3
F0.0
aF0.0
aF23.89058494567871
aF9.647329330444336
aF11.509023666381836
aF21.623437881469727
aF3.7511911392211914
aF6.26650857925415
aF1.0981122255325317
aF-7.39580774307251
aF13.47889232635498
aF11.160788536071777
aF-0.9613311290740967
aF-4.1125078201293945
aF-2.7859976291656494
aF-3.200261116027832
aF2.194017171859741
aF5.036899566650391
aF-3.1388344764709473
aF0.5140289664268494
aF-16.566295623779297
aF-15.529687881469727
aFnan
aFnan
aFnan
aFnan
aa.