(lp0
(lp1
I1
aI2
aI3
aI4
aI5
aI6
aI7
aI8
aI9
aI10
aI11
aI12
aI13
aI14
aa(lp2
Fnan
aF-150.0
aFnan
aFnan
aF-149.8627471923828
aFnan
aFnan
aFnan
aFnan
aFnan
aF-150.0
aF-150.0
aFnan
aF-150.0
aa(lp3
Fnan
aFnan
aFnan
aFnan
aFnan
aFnan
aF0.0
aFnan
aF0.0
aF0.0
aF0.0
aF0.0
aF0.0
aF0.0
aa.