(lp0
(lp1
I1
aI2
aI3
aI4
aI5
aI6
aI7
aI8
aI9
aI10
aI11
aI12
aI13
aI14
aI15
aI16
aI17
aI18
aI19
aI20
aI21
aI22
aI23
aI24
aI25
aI26
aI27
aI28
aI29
aI30
aI31
aI32
aI33
aI34
aI35
aI36
aI37
aI38
aI39
aI40
aI41
aI42
aI43
aI44
aI45
aI46
aI47
aI48
aI49
aI50
aI51
aI52
aI53
aI54
aI55
aI56
aI57
aI58
aI59
aI60
aI61
aI62
aI63
aI64
aI65
aI66
aI67
aI68
aI69
aI70
aI71
aI72
aI73
aI74
aI75
aI76
aI77
aI78
aI79
aI80
aI81
aI82
aI83
aI84
aI85
aI86
aI87
aI88
aI89
aI90
aI91
aI92
aI93
aI94
aI95
aI96
aI97
aI98
aI99
aI100
aI101
aI102
aI103
aI104
aI105
aI106
aI107
aI108
aI109
aI110
aI111
aI112
aI113
aI114
aI115
aI116
aI117
aI118
aI119
aI120
aI121
aI122
aI123
aI124
aI125
aI126
aI127
aI128
aI129
aI130
aI131
aI132
aI133
aI134
aI135
aI136
aI137
aI138
aI139
aI140
aI141
aI142
aI143
aI144
aI145
aI146
aI147
aI148
aI149
aI150
aI151
aI152
aI153
aI154
aI155
aI156
aI157
aI158
aI159
aI160
aI161
aI162
aI163
aI164
aI165
aI166
aI167
aI168
aI169
aI170
aI171
aI172
aI173
aI174
aI175
aI176
aI177
aI178
aI179
aI180
aI181
aI182
aI183
aI184
aI185
aI186
aI187
aI188
aI189
aI190
aI191
aI192
aI193
aI194
aI195
aI196
aI197
aI198
aI199
aI200
aI201
aI202
aI203
aI204
aI205
aI206
aI207
aI208
aI209
aI210
aI211
aI212
aI213
aI214
aI215
aI216
aI217
aI218
aI219
aI220
aI221
aI222
aI223
aI224
aI225
aI226
aI227
aI228
aI229
aI230
aI231
aI232
aI233
aI234
aI235
aI236
aI237
aI238
aI239
aI240
aI241
aI242
aI243
aI244
aI245
aI246
aI247
aI248
aI249
aI250
aI251
aI252
aI253
aI254
aI255
aI256
aI257
aI258
aI259
aI260
aI261
aI262
aI263
aI264
aI265
aI266
aI267
aI268
aI269
aI270
aI271
aI272
aI273
aI274
aI275
aI276
aI277
aI278
aI279
aI280
aI281
aI282
aI283
aI284
aI285
aI286
aI287
aI288
aI289
aI290
aI291
aI292
aI293
aI294
aI295
aI296
aI297
aI298
aI299
aI300
aI301
aI302
aI303
aI304
aI305
aI306
aI307
aI308
aI309
aI310
aI311
aI312
aI313
aI314
aI315
aI316
aI317
aI318
aI319
aI320
aI321
aI322
aI323
aI324
aI325
aI326
aI327
aI328
aI329
aI330
aI331
aI332
aI333
aI334
aI335
aI336
aI337
aI338
aI339
aI340
aI341
aI342
aI343
aI344
aI345
aI346
aI347
aI348
aI349
aI350
aI351
aI352
aI353
aI354
aI355
aI356
aI357
aI358
aI359
aI360
aI361
aI362
aI363
aI364
aI365
aI366
aI367
aI368
aI369
aI370
aI371
aI372
aI373
aI374
aI375
aI376
aI377
aI378
aI379
aI380
aI381
aI382
aI383
aI384
aI385
aI386
aI387
aI388
aI389
aI390
aI391
aI392
aI393
aI394
aI395
aI396
aI397
aI398
aI399
aI400
aI401
aI402
aI403
aI404
aI405
aI406
aI407
aI408
aI409
aI410
aI411
aI412
aI413
aI414
aI415
aI416
aI417
aI418
aI419
aI420
aI421
aI422
aI423
aI424
aI425
aI426
aI427
aI428
aI429
aI430
aa(lp2
F78.73091888427734
aF-6.454953670501709
aF88.25886535644531
aF-128.963134765625
aF-44.53703689575195
aF-40.755794525146484
aF-71.08631896972656
aF80.28600311279297
aF-77.76799774169922
aF-136.29708862304688
aF-131.04837036132812
aF112.82862854003906
aF-159.4515380859375
aF-148.24066162109375
aF-136.22158813476562
aF-134.3895263671875
aF21.998525619506836
aF-69.66352081298828
aF-82.87567901611328
aF-137.52963256835938
aF-123.75789642333984
aF-129.80831909179688
aF-69.01483154296875
aF507.9334411621094
aF28.642963409423828
aF-60.95966720581055
aF-137.05047607421875
aF199.7490234375
aF-132.8195037841797
aF-75.38685607910156
aF91.42646789550781
aF-67.74808502197266
aF-71.84033203125
aF-140.25360107421875
aF-89.99091339111328
aF-4.574108123779297
aF-71.39537048339844
aF-71.74457550048828
aF-42.75333786010742
aF-65.58840942382812
aF180.9830322265625
aF-50.21866989135742
aF-128.95932006835938
aF-136.79214477539062
aF-136.46670532226562
aF-29.326404571533203
aF-137.9108123779297
aF-60.891998291015625
aF-141.1389923095703
aF-0.9360973834991455
aF8.26076602935791
aF-141.24520874023438
aF-141.46310424804688
aF-129.37403869628906
aF-139.5695037841797
aF75.0566635131836
aF-42.97126770019531
aF-141.84445190429688
aF-138.86911010742188
aF-1.3907697200775146
aF-138.8115692138672
aF-159.54466247558594
aF-140.20962524414062
aF-144.22402954101562
aF-170.0025177001953
aF-148.89950561523438
aF-126.39105987548828
aF-91.69935607910156
aF98.13948059082031
aF-141.61492919921875
aF-136.1262969970703
aF-59.99211502075195
aF-35.16508865356445
aF-153.89349365234375
aF-145.0538787841797
aF-128.20347595214844
aF-168.99803161621094
aF-138.63003540039062
aF-168.52105712890625
aF-141.12957763671875
aF-140.6995086669922
aF-135.3956756591797
aF-46.66202926635742
aF-69.87394714355469
aF117.25648498535156
aF-58.634986877441406
aF-140.0209503173828
aF-141.36294555664062
aF58.94493103027344
aF-52.16208267211914
aF-158.91476440429688
aF-160.40467834472656
aF-139.43626403808594
aF-131.9075469970703
aF-76.06852722167969
aF105.18385314941406
aF-137.86358642578125
aF-58.96662139892578
aF38.23768997192383
aF176.58900451660156
aF6.233389377593994
aF-51.01860046386719
aF-144.38710021972656
aF-63.61295700073242
aF-37.38984680175781
aF-52.261680603027344
aF-119.79600524902344
aF-143.19155883789062
aF27.306100845336914
aF1168.919189453125
aF-32.277530670166016
aF-21.459552764892578
aF-13.77751636505127
aF127.98832702636719
aF-136.18121337890625
aF-154.83351135253906
aF-75.7816162109375
aF-125.84768676757812
aF-120.34178161621094
aF-67.52767181396484
aF-75.84722900390625
aF-73.36931610107422
aF116.9941635131836
aF-50.414222717285156
aF-52.94739532470703
aF-88.88624572753906
aF-9.177672386169434
aF-151.57289123535156
aF-144.84921264648438
aF-83.68090057373047
aF-141.7042236328125
aF-162.59103393554688
aF-135.56192016601562
aF-138.857421875
aF-140.4148712158203
aF392.1093444824219
aF-69.88130950927734
aF-138.509521484375
aF-129.86264038085938
aF98.9766845703125
aF109.35614013671875
aF-124.6839370727539
aF-81.0262680053711
aF-79.2551498413086
aF-139.9160919189453
aF-136.10232543945312
aF-125.58341217041016
aF-193.26959228515625
aF198.79466247558594
aF-74.80906677246094
aF-106.60767364501953
aF-71.73567199707031
aF-132.5748291015625
aF-142.21136474609375
aF29.98219108581543
aF-70.18350982666016
aF-136.44862365722656
aF-76.17748260498047
aF80.1050796508789
aF-35.800296783447266
aF-62.07335662841797
aF-70.9485855102539
aF-138.55992126464844
aF-125.63133239746094
aF21.176315307617188
aF-63.24150466918945
aF-136.78675842285156
aF-76.90740966796875
aF-144.6118621826172
aF-38.7315788269043
aF-65.5654525756836
aF9.875933647155762
aF6.441431999206543
aF-140.99188232421875
aF-54.439483642578125
aF-134.40196228027344
aF-59.56551742553711
aF-57.091758728027344
aF-39.116336822509766
aF-124.12763214111328
aF-141.54774475097656
aF-54.45927429199219
aF-135.60841369628906
aF-42.587032318115234
aF-134.053466796875
aF-40.392059326171875
aF-139.2271728515625
aF15.95139217376709
aF17.539175033569336
aF-134.43362426757812
aF-134.26271057128906
aF-137.41921997070312
aF19.001548767089844
aF-44.238277435302734
aF-8.472919464111328
aF-51.14448165893555
aF-40.418766021728516
aF-138.38607788085938
aF-139.8135223388672
aF-139.78790283203125
aF-122.19670867919922
aF-139.37258911132812
aF-140.4456024169922
aF-139.49732971191406
aF-140.29598999023438
aF-118.54125213623047
aF-61.420101165771484
aF-66.17168426513672
aF-53.029396057128906
aF-48.600074768066406
aF-139.29344177246094
aF27.79945182800293
aF-133.83346557617188
aF41.385074615478516
aF-136.4839324951172
aF-32.166873931884766
aF-49.695220947265625
aF-134.44448852539062
aF-31.162805557250977
aF-146.17279052734375
aF-68.2378158569336
aF-51.12767028808594
aF-66.0135726928711
aF-53.36612319946289
aF24.242250442504883
aF-68.5116195678711
aF-23.00711441040039
aF-127.0354232788086
aF-200.6136474609375
aF-91.20530700683594
aF-68.35725402832031
aF-89.7560806274414
aF-53.26416778564453
aF-52.091068267822266
aF-52.56974792480469
aF-52.731136322021484
aF197.4072723388672
aF-138.18801879882812
aF20.315427780151367
aF-54.32726287841797
aF-69.12494659423828
aF0.5053677558898926
aF-79.8005142211914
aF-87.27163696289062
aF-146.61184692382812
aF245.2372283935547
aF22.481672286987305
aF336.2944030761719
aF-141.25633239746094
aF-141.34913635253906
aF-139.96620178222656
aF-145.00990295410156
aF-167.44439697265625
aF-68.8727798461914
aF26.616270065307617
aF-125.70330047607422
aF-138.08583068847656
aF-95.02095794677734
aF-145.2989044189453
aF-137.8793487548828
aF-57.48543167114258
aF61.17258834838867
aF-145.64694213867188
aF-136.38595581054688
aF-13.435857772827148
aF-75.92449951171875
aF-116.279296875
aF-144.874755859375
aF229.7684326171875
aF54.316307067871094
aF-115.92864990234375
aF175.24327087402344
aF207.71246337890625
aF398.89862060546875
aF-138.55604553222656
aF-81.90609741210938
aF-128.84295654296875
aF-120.70765686035156
aF-2.151902198791504
aF-90.95697021484375
aF-47.5402717590332
aF-155.2853240966797
aF-136.11898803710938
aF-160.10516357421875
aF-162.2713165283203
aF-156.09776306152344
aF-65.1733169555664
aF246.22708129882812
aF-116.78787994384766
aF-39.048583984375
aF-36.22389602661133
aF-114.09990692138672
aF108.70680236816406
aF-93.3455810546875
aF-67.65007019042969
aF-153.92291259765625
aF-68.0391845703125
aF-89.67469787597656
aF-80.264892578125
aF22.589641571044922
aF-91.27822875976562
aF-70.15636444091797
aF-82.5955581665039
aF-51.109291076660156
aF-90.35222625732422
aF-41.880165100097656
aF-137.2000732421875
aF-52.144432067871094
aF-134.57772827148438
aF-63.96746063232422
aF-140.7644805908203
aF-53.0485954284668
aF-134.49864196777344
aF-55.470970153808594
aF-53.06776428222656
aF-52.31793975830078
aF134.977783203125
aF-2.901479959487915
aF-67.59720611572266
aF-61.61232376098633
aF-66.57659912109375
aF-64.8163070678711
aF-74.52656555175781
aF-163.24595642089844
aF-33.99729919433594
aF-92.21034240722656
aF205.07321166992188
aF244.21109008789062
aF12.534282684326172
aF-176.43995666503906
aF-55.8294792175293
aF-79.08077239990234
aF-124.27824401855469
aF-109.29749298095703
aF32.15232849121094
aF243.32191467285156
aF189.5131072998047
aF-44.47644805908203
aF-38.10416030883789
aF259.12811279296875
aF346.58642578125
aF-139.01461791992188
aF-133.4280548095703
aF293.9542236328125
aF26.066476821899414
aF-88.76396179199219
aF90.54951477050781
aF-145.1281280517578
aF-77.9357681274414
aF-157.52117919921875
aF-78.84446716308594
aF-152.01585388183594
aF132.44961547851562
aF-73.01809692382812
aF242.78370666503906
aF230.51068115234375
aF-25.120084762573242
aF-81.22526550292969
aF-75.05857849121094
aF-85.28661346435547
aF-162.16128540039062
aF-81.79054260253906
aF36.39120864868164
aF-144.88314819335938
aF44.92915344238281
aF-84.33343505859375
aF10.21269416809082
aF38.41865539550781
aF247.97035217285156
aF157.8867645263672
aF-86.68445587158203
aF183.9639892578125
aF207.3193817138672
aF33.82893371582031
aF213.09767150878906
aF226.63955688476562
aF122.28923034667969
aF264.3900146484375
aF23.123292922973633
aF-84.29242706298828
aF-118.98267364501953
aF-2.606276273727417
aF-63.97096633911133
aF45.03506851196289
aF-94.4829330444336
aF198.73167419433594
aF185.2846221923828
aF195.4280548095703
aF200.5872802734375
aF-139.24258422851562
aF211.2451171875
aF17.254070281982422
aF13.414579391479492
aF-73.35337829589844
aF236.44290161132812
aF-66.44420623779297
aF237.81210327148438
aF70.8252944946289
aF-54.83761215209961
aF208.96453857421875
aF140.50624084472656
aF29.179243087768555
aF-84.5956039428711
aF-83.10192108154297
aF-24.34302520751953
aF-50.83406448364258
aF-64.04226684570312
aF-68.95568084716797
aF13.676244735717773
aF186.00616455078125
aF-152.6992950439453
aF91.59625244140625
aF129.78050231933594
aF-19.393659591674805
aF174.42893981933594
aF-132.29026794433594
aF133.99964904785156
aF-19.977439880371094
aF251.75961303710938
aF239.5452423095703
aF-69.36528015136719
aF-69.9068374633789
aF-49.470401763916016
aF-93.8095932006836
aF-89.14053344726562
aF-63.329833984375
aF-209.171875
aF207.16712951660156
aF14.13862133026123
aF-150.7744140625
aa(lp3
F0.0
aF0.20074912905693054
aF-0.08899293839931488
aF0.01080494187772274
aF-0.044164493680000305
aF-0.801622211933136
aF-1.0568276643753052
aF-1.3371353149414062
aF-1.8229105472564697
aF-1.7020065784454346
aF-2.3591227531433105
aF-3.647822856903076
aF-3.812514543533325
aF-4.1656646728515625
aF-4.609105110168457
aF-4.978157997131348
aF-6.2608513832092285
aF-7.896688938140869
aF-9.67055892944336
aF-9.821379661560059
aF-10.760455131530762
aF-11.143523216247559
aF-12.15403938293457
aF-20.42403221130371
aF-21.167802810668945
aF-22.176103591918945
aF-21.688831329345703
aF-26.37644386291504
aF-27.170501708984375
aF-27.84827423095703
aF-30.476490020751953
aF-28.511241912841797
aF-30.132017135620117
aF-28.440731048583984
aF-30.63088035583496
aF-32.22390365600586
aF-35.21232986450195
aF-33.68370819091797
aF-35.05009078979492
aF-37.43350601196289
aF-43.356380462646484
aF-36.99569320678711
aF-45.300724029541016
aF-41.083168029785156
aF-40.37494659423828
aF-39.36213684082031
aF-52.201873779296875
aF-53.17124557495117
aF-41.97991943359375
aF-42.723079681396484
aF-43.68727111816406
aF-44.74515151977539
aF-45.61363983154297
aF-44.3859748840332
aF-41.37615203857422
aF-42.773006439208984
aF-55.498653411865234
aF-43.9842643737793
aF-43.50880813598633
aF-60.43400192260742
aF-51.022422790527344
aF-48.58100891113281
aF-55.7746467590332
aF-84.74055480957031
aF-50.927467346191406
aF-60.97579574584961
aF-45.57482147216797
aF-67.8416748046875
aF-67.36287689208984
aF-67.73863220214844
aF-63.112918853759766
aF-53.394832611083984
aF-51.821990966796875
aF-45.47556686401367
aF-46.17177200317383
aF-44.51165771484375
aF-50.698768615722656
aF-42.44533920288086
aF-84.8372802734375
aF-81.68407440185547
aF-101.03425598144531
aF-73.66645812988281
aF-97.5997314453125
aF-74.12187957763672
aF-80.14226531982422
aF-95.44820404052734
aF-62.87295913696289
aF-67.30126953125
aF-126.44227600097656
aF-57.9553337097168
aF-88.08451080322266
aF-83.01658630371094
aF-67.6589584350586
aF-52.14287185668945
aF-128.94427490234375
aF-67.60179901123047
aF-126.61688995361328
aF-54.35160827636719
aF-52.4589958190918
aF-50.81544876098633
aF-90.15010070800781
aF-74.22623443603516
aF-75.16973876953125
aF-75.16181945800781
aF-123.63841247558594
aF-49.2054557800293
aF-63.09675598144531
aF-120.6359634399414
aF-104.69567108154297
aF-59.125205993652344
aF-60.09529495239258
aF-136.74705505371094
aF-48.417354583740234
aF-53.04715347290039
aF-51.35965347290039
aF-44.28479766845703
aF-62.91775131225586
aF-54.75225067138672
aF-74.75314331054688
aF-96.91114807128906
aF-58.14003372192383
aF-129.16018676757812
aF-65.13417053222656
aF-54.61711502075195
aF-139.6113739013672
aF-91.50936889648438
aF-73.80802154541016
aF-51.44649124145508
aF-55.257808685302734
aF-55.393150329589844
aF-77.80178833007812
aF-51.12492752075195
aF-46.78162384033203
aF-46.609031677246094
aF-52.19328308105469
aF-101.18136596679688
aF-44.605552673339844
aF-123.38253021240234
aF-74.3643569946289
aF-55.717750549316406
aF-46.59791564941406
aF-103.28292846679688
aF-48.67887878417969
aF-50.4785270690918
aF-48.91563415527344
aF-44.93812561035156
aF-51.355010986328125
aF-85.44085693359375
aF-53.98514175415039
aF-48.812381744384766
aF-65.4503402709961
aF-48.33067321777344
aF-48.5911750793457
aF-73.89066314697266
aF-85.60713958740234
aF-120.89459228515625
aF-60.675071716308594
aF-88.09075164794922
aF-87.0251235961914
aF-99.80714416503906
aF-74.74610137939453
aF-107.92253112792969
aF-60.48922348022461
aF-62.04545211791992
aF-65.61905670166016
aF-50.853843688964844
aF-62.92366027832031
aF-84.29289245605469
aF-52.88428497314453
aF-54.90867233276367
aF-62.27264404296875
aF-58.343528747558594
aF-51.451507568359375
aF-49.69127655029297
aF-60.762969970703125
aF-79.04776763916016
aF-52.962520599365234
aF-63.40011978149414
aF-67.21382904052734
aF-60.83516311645508
aF-54.79446792602539
aF-62.7476921081543
aF-60.263755798339844
aF-57.85460662841797
aF-70.10391998291016
aF-54.891231536865234
aF-61.21406173706055
aF-142.8180389404297
aF-74.6424789428711
aF-52.01096725463867
aF-57.80311965942383
aF-56.721683502197266
aF-47.772315979003906
aF-140.92759704589844
aF-119.1630630493164
aF-53.03184509277344
aF-106.07025909423828
aF-61.93438720703125
aF-107.58414459228516
aF-137.12600708007812
aF-58.35050964355469
aF-55.231239318847656
aF-72.74229431152344
aF-52.45309066772461
aF-111.92596435546875
aF-51.658958435058594
aF-58.96761703491211
aF-52.311012268066406
aF-51.47122573852539
aF-67.08369445800781
aF-51.33848571777344
aF-52.337703704833984
aF-82.26363372802734
aF-121.41924285888672
aF-146.72817993164062
aF-41.125755310058594
aF-41.75551223754883
aF-49.0189094543457
aF-57.54065704345703
aF-80.42738342285156
aF-47.4495964050293
aF-54.416507720947266
aF-47.52790832519531
aF-50.28715133666992
aF-73.96099853515625
aF-105.55493927001953
aF-95.77506256103516
aF-47.68238067626953
aF-42.11587905883789
aF-46.90507125854492
aF-48.65150451660156
aF-45.389225006103516
aF-45.48141098022461
aF-49.080047607421875
aF-44.26578140258789
aF-52.566001892089844
aF-53.35245132446289
aF-45.57599639892578
aF-57.0400505065918
aF-48.173095703125
aF-45.0351676940918
aF-50.67876052856445
aF-81.96894836425781
aF-56.44607925415039
aF-131.8324737548828
aF-75.45960998535156
aF-128.9490203857422
aF-56.4622802734375
aF-80.3258285522461
aF-62.05766296386719
aF-62.587493896484375
aF-59.382076263427734
aF-88.52011108398438
aF-51.65983200073242
aF-84.19415283203125
aF-47.344085693359375
aF-43.70703887939453
aF-73.05726623535156
aF-108.8218994140625
aF-49.59352111816406
aF-47.60154342651367
aF-73.8167724609375
aF-49.251365661621094
aF-44.63624572753906
aF-48.48844909667969
aF-53.623905181884766
aF-46.11631774902344
aF-42.833457946777344
aF-59.27256774902344
aF-49.9744758605957
aF-42.96658706665039
aF-67.67282104492188
aF-45.41529846191406
aF-61.75194549560547
aF-47.91015625
aF-53.382442474365234
aF-50.43681716918945
aF-84.34578704833984
aF-60.00173568725586
aF-114.81346130371094
aF-53.39821243286133
aF-61.760345458984375
aF-50.841190338134766
aF-52.07141876220703
aF-81.97219848632812
aF-64.55753326416016
aF-47.25697708129883
aF-36.09757995605469
aF-35.71426773071289
aF-95.05706024169922
aF-141.82615661621094
aF-37.671852111816406
aF-68.01888275146484
aF-75.24797058105469
aF-45.6281852722168
aF-49.29960632324219
aF-43.93655014038086
aF-62.03487777709961
aF-39.103233337402344
aF-41.481483459472656
aF-41.638526916503906
aF-47.49435043334961
aF-48.33732604980469
aF-47.169891357421875
aF-39.4970588684082
aF-40.64768981933594
aF-39.7585563659668
aF-123.40135192871094
aF-42.34004211425781
aF-53.945106506347656
aF-43.87166213989258
aF-37.350013732910156
aF-38.720428466796875
aF-83.15216827392578
aF-44.04642868041992
aF-38.71913146972656
aF-42.53654098510742
aF-39.37636184692383
aF-45.5626106262207
aF-46.94905471801758
aF-44.58920669555664
aF-49.74464797973633
aF-60.27046203613281
aF-41.28998947143555
aF-80.32984161376953
aF-50.53913879394531
aF-56.4826545715332
aF-48.287208557128906
aF-47.95079040527344
aF-43.31633377075195
aF-41.92057800292969
aF-49.00062561035156
aF-46.19049835205078
aF-138.36158752441406
aF-55.16026306152344
aF-62.66616439819336
aF-46.5960693359375
aF-52.70832443237305
aF-50.72352600097656
aF-48.5175666809082
aF-117.76080322265625
aF-54.245147705078125
aF-84.795654296875
aF-45.523643493652344
aF-45.24908447265625
aF-43.33185577392578
aF-41.896263122558594
aF-45.96924591064453
aF-112.07048034667969
aF-71.41333770751953
aF-42.63687515258789
aF-46.89033508300781
aF-51.32117462158203
aF-43.61616516113281
aF-50.39401626586914
aF-46.763492584228516
aF-63.315032958984375
aF-54.680747985839844
aF-47.82033920288086
aF-48.92854690551758
aF-112.55269622802734
aF-53.73720932006836
aF-51.34014892578125
aF-67.54444122314453
aF-59.1245002746582
aF-45.34714889526367
aF-45.19657516479492
aF-52.017215728759766
aF-43.85527801513672
aF-50.2232666015625
aF-36.98723602294922
aF-41.586280822753906
aF-45.81678771972656
aF-42.93952560424805
aF-46.9492301940918
aF-48.06465530395508
aF-46.407875061035156
aF-37.33660125732422
aF-39.71815872192383
aF-32.36524200439453
aF-41.950096130371094
aF-34.772457122802734
aF-38.61156463623047
aF-28.460420608520508
aF-27.817716598510742
aF-29.91927719116211
aF-28.969196319580078
aF-34.482093811035156
aF-31.592763900756836
aF-38.51918029785156
aF-31.19304847717285
aF-38.93266677856445
aF-43.23645782470703
aF-43.57752227783203
aF-37.9522590637207
aF-34.58802795410156
aF-34.310272216796875
aF-33.9513053894043
aF-39.64894104003906
aF-32.23948669433594
aF-46.23878860473633
aF-43.512420654296875
aF-32.90199661254883
aF-36.022422790527344
aF-55.07587814331055
aF-34.11794662475586
aF-48.184410095214844
aF-40.62704086303711
aF-45.44099426269531
aF-43.779659271240234
aF-38.334442138671875
aF-33.89867401123047
aF-33.32546615600586
aF-31.5745792388916
aF-44.0783805847168
aF-33.56406784057617
aF-32.94538497924805
aF-42.443111419677734
aF-32.59821701049805
aF-36.52239990234375
aF-34.800655364990234
aF-30.18467903137207
aF-35.4530029296875
aF-30.506914138793945
aF-47.8206787109375
aF-35.699302673339844
aF-43.181968688964844
aF-34.08977508544922
aF-103.77396392822266
aF-41.577545166015625
aa.