(lp0
(lp1
I1
aI2
aI3
aI4
aI5
aI6
aI7
aI8
aI9
aI10
aI11
aI12
aI13
aI14
aI15
aI16
aa(lp2
F-211.48297119140625
aF650.1396484375
aF-168.7390594482422
aF67.19256591796875
aF151.96533203125
aF-139.7952880859375
aF-182.7935333251953
aF-192.8270721435547
aF106.49878692626953
aF676.1245727539062
aF21.869705200195312
aF623.3956909179688
aF104.57683563232422
aF148.19703674316406
aF1515.44775390625
aF1321.38232421875
aa(lp3
F11.876924514770508
aF22.498403549194336
aF-23.576580047607422
aF-21.015653610229492
aF21.61954116821289
aF60.02199935913086
aF22.202800750732422
aF36.74633026123047
aF25.911121368408203
aF20.302173614501953
aF12.450410842895508
aF12.417401313781738
aF34.601078033447266
aF8.28793716430664
aF8.141094207763672
aF-161.85545349121094
aa.