(lp0
(lp1
I1
aI2
aI3
aI4
aI5
aI6
aI7
aI8
aI9
aI10
aI11
aI12
aI13
aI14
aI15
aI16
aI17
aI18
aI19
aI20
aI21
aI22
aI23
aI24
aI25
aI26
aI27
aI28
aI29
aI30
aI31
aI32
aI33
aI34
aI35
aI36
aI37
aI38
aI39
aI40
aI41
aI42
aI43
aI44
aI45
aI46
aI47
aI48
aI49
aI50
aI51
aI52
aI53
aI54
aI55
aI56
aI57
aI58
aI59
aI60
aI61
aI62
aI63
aI64
aI65
aI66
aI67
aI68
aI69
aI70
aI71
aI72
aI73
aI74
aI75
aI76
aI77
aI78
aI79
aI80
aI81
aI82
aI83
aI84
aI85
aI86
aI87
aI88
aI89
aI90
aI91
aI92
aI93
aI94
aI95
aI96
aI97
aI98
aI99
aI100
aI101
aI102
aI103
aI104
aI105
aI106
aI107
aI108
aI109
aI110
aI111
aI112
aI113
aI114
aI115
aI116
aI117
aI118
aI119
aI120
aI121
aI122
aI123
aI124
aI125
aI126
aI127
aI128
aI129
aI130
aI131
aI132
aI133
aI134
aI135
aI136
aI137
aI138
aI139
aI140
aI141
aI142
aI143
aI144
aI145
aI146
aI147
aI148
aI149
aI150
aI151
aI152
aI153
aI154
aI155
aI156
aI157
aI158
aI159
aI160
aI161
aI162
aI163
aI164
aI165
aI166
aI167
aI168
aI169
aI170
aI171
aI172
aI173
aa(lp2
F56.02842712402344
aF71.99860382080078
aF34.2140998840332
aF60.8688850402832
aF-117.84307098388672
aF-172.6655731201172
aF220.1082763671875
aF45.20126724243164
aF-21.724035263061523
aF-19.470069885253906
aF-16.13235092163086
aF42.35002899169922
aF180.1276397705078
aF5.0900797843933105
aF51.0267448425293
aF156.12545776367188
aF236.66171264648438
aF362.251708984375
aF-87.50886535644531
aF-136.78134155273438
aF-167.66200256347656
aF-5.738379955291748
aF254.79803466796875
aF-20.186676025390625
aF-141.23890686035156
aF2.2937564849853516
aF-88.36030578613281
aF87.125732421875
aF184.52586364746094
aF403.46771240234375
aF45.794090270996094
aF26.934036254882812
aF357.49505615234375
aF17.82402801513672
aF38.468624114990234
aF-21.68337631225586
aF-11.822059631347656
aF296.6805419921875
aF6.80526065826416
aF268.5031433105469
aF10.610513687133789
aF553.5650024414062
aF-150.9930419921875
aF12.949044227600098
aF700.9036865234375
aF274.142578125
aF341.25384521484375
aF-38.763729095458984
aF57.76139450073242
aF-12.653036117553711
aF27.36155128479004
aF218.46046447753906
aF52.35795974731445
aF70.37098693847656
aF1295.744140625
aF-107.71122741699219
aF233.483154296875
aF441.3206481933594
aF813.1937255859375
aF28.701051712036133
aF-122.61397552490234
aF43.87583923339844
aF33.642879486083984
aF372.64678955078125
aF290.55584716796875
aF902.1412353515625
aF28.7796688079834
aF1009.65380859375
aF-8.099660873413086
aF19.20283317565918
aF373.34906005859375
aF178.00054931640625
aF1013.1414794921875
aF-111.91835021972656
aF642.0137939453125
aF328.6563720703125
aF151.12355041503906
aF297.7882385253906
aF161.9633026123047
aF353.4822082519531
aF266.89996337890625
aF-13.609786987304688
aF412.89776611328125
aF48.482940673828125
aF54.918922424316406
aF538.5551147460938
aF65.76882934570312
aF164.14007568359375
aF-6.394250392913818
aF7.527851581573486
aF198.07421875
aF71.7642822265625
aF12.540797233581543
aF493.00274658203125
aF185.8930206298828
aF7.463388919830322
aF43.72163772583008
aF61.763729095458984
aF-96.1800537109375
aF38.00400161743164
aF351.7911071777344
aF31.108543395996094
aF199.28135681152344
aF1476.6317138671875
aF23.794681549072266
aF82.08815002441406
aF96.2142562866211
aF142.79605102539062
aF35.3140869140625
aF251.07492065429688
aF30.773775100708008
aF68.37265014648438
aF8.329097747802734
aF359.7626647949219
aF19.826379776000977
aF72.68209075927734
aF33.173526763916016
aF94.6953125
aF55.14107894897461
aF339.9819641113281
aF49.91548156738281
aF87.35082244873047
aF30.29895782470703
aF269.57989501953125
aF337.1226501464844
aF399.7190856933594
aF84.15773010253906
aF63.61682891845703
aF63.43278884887695
aF27.383785247802734
aF88.27735900878906
aF-17.072830200195312
aF61.24076843261719
aF63.72380065917969
aF61.122501373291016
aF236.87596130371094
aF68.50153350830078
aF58.80826950073242
aF33.117286682128906
aF35.94061279296875
aF36.77936935424805
aF13.454937934875488
aF52.13920593261719
aF74.83233642578125
aF239.90431213378906
aF242.07968139648438
aF625.4761352539062
aF56.258113861083984
aF259.5957946777344
aF179.8475799560547
aF251.69656372070312
aF54.379539489746094
aF57.944122314453125
aF54.77802658081055
aF55.12599563598633
aF47.705074310302734
aF85.70169830322266
aF52.40831756591797
aF23.655080795288086
aF47.2626838684082
aF51.596290588378906
aF254.97518920898438
aF68.65043640136719
aF-12.013716697692871
aF63.57575225830078
aF15.08590316772461
aF121.91521453857422
aF559.44873046875
aF52.726593017578125
aF29.92445945739746
aF162.86337280273438
aF35.515384674072266
aF25.848726272583008
aa(lp3
F1.3544846773147583
aF2.440969228744507
aF3.757070302963257
aF0.7169317007064819
aF5.063508987426758
aF1.638174295425415
aF-1.5706520080566406
aF1.0499526262283325
aF-0.05705607682466507
aF-2.026034355163574
aF-2.170030117034912
aF-18.04058074951172
aF-5.087733268737793
aF7.483701229095459
aF10.187620162963867
aF13.242801666259766
aF14.638877868652344
aF19.587080001831055
aF-13.415741920471191
aF-7.646099090576172
aF14.291836738586426
aF-6.54098653793335
aF16.622556686401367
aF-20.887264251708984
aF20.319486618041992
aF-49.088043212890625
aF14.218442916870117
aF17.089765548706055
aF-18.595434188842773
aF-41.764591217041016
aF-19.38348388671875
aF-8.321380615234375
aF11.778871536254883
aF-11.087485313415527
aF-80.72439575195312
aF18.412431716918945
aF6.460223197937012
aF17.610490798950195
aF12.657254219055176
aF12.0516357421875
aF-18.745759963989258
aF15.726892471313477
aF16.053565979003906
aF-26.337207794189453
aF18.384170532226562
aF22.183181762695312
aF17.848478317260742
aF22.203720092773438
aF12.103092193603516
aF17.16697883605957
aF20.253116607666016
aF21.103775024414062
aF23.293472290039062
aF24.256759643554688
aF-88.7103500366211
aF8.514763832092285
aF15.880859375
aF14.872987747192383
aF28.513578414916992
aF25.301624298095703
aF27.486251831054688
aF25.995840072631836
aF14.806548118591309
aF31.673830032348633
aF27.828580856323242
aF-46.62503433227539
aF-74.20728302001953
aF32.25885772705078
aF30.92772102355957
aF-50.319698333740234
aF21.73421287536621
aF32.971893310546875
aF28.273466110229492
aF31.6217098236084
aF11.190131187438965
aF-6.064337253570557
aF33.87232971191406
aF37.89363479614258
aF32.272010803222656
aF28.960203170776367
aF36.92595672607422
aF27.02315330505371
aF-37.42173385620117
aF-48.8838996887207
aF38.97160339355469
aF38.54085159301758
aF39.281673431396484
aF37.923248291015625
aF-103.77735137939453
aF0.27106142044067383
aF46.24983596801758
aF27.859790802001953
aF43.42048263549805
aF41.61874771118164
aF36.440425872802734
aF32.199214935302734
aF28.692649841308594
aF28.647579193115234
aF24.14555549621582
aF49.97190856933594
aF-62.87612533569336
aF-10.456805229187012
aF40.3740234375
aF6.9309563636779785
aF48.55409622192383
aF35.53173065185547
aF-148.93475341796875
aF12.048060417175293
aF54.68522644042969
aF55.03970718383789
aF56.72113037109375
aF61.18777847290039
aF27.574525833129883
aF52.11933898925781
aF55.71138381958008
aF38.051368713378906
aF57.46641540527344
aF13.705405235290527
aF50.422122955322266
aF26.77855682373047
aF-66.79195404052734
aF45.030113220214844
aF-58.12229919433594
aF41.06962203979492
aF48.87999725341797
aF-46.24662780761719
aF26.857084274291992
aF58.515132904052734
aF25.400724411010742
aF38.75117111206055
aF50.405426025390625
aF32.36460494995117
aF-60.37289047241211
aF23.334848403930664
aF17.68573760986328
aF-47.46544647216797
aF23.468019485473633
aF47.025917053222656
aF-20.36602783203125
aF10.29747486114502
aF2.2980313301086426
aF50.052734375
aF54.51383590698242
aF21.9394588470459
aF57.10654830932617
aF44.53919982910156
aF51.64701843261719
aF59.573246002197266
aF52.714237213134766
aF62.904075622558594
aF61.12691116333008
aF10.038208961486816
aF19.90897560119629
aF57.92592239379883
aF9.402569770812988
aF60.823360443115234
aF33.10330581665039
aF55.469669342041016
aF54.30263900756836
aF46.80303955078125
aF27.52297019958496
aF65.43584442138672
aF-57.03709411621094
aF42.17989730834961
aF70.07742309570312
aF49.75332260131836
aF63.15774917602539
aF66.6952133178711
aF49.206268310546875
aF47.52809143066406
aF28.50706672668457
aF19.421159744262695
aF64.33979034423828
aa.