(lp0
(lp1
I1
aI2
aI3
aI4
aI5
aI6
aI7
aI8
aI9
aI10
aI11
aI12
aI13
aI14
aI15
aI16
aI17
aI18
aI19
aI20
aI21
aI22
aI23
aI24
aa(lp2
F-52.50569534301758
aF-136.8576202392578
aF-141.64723205566406
aF-140.49964904785156
aF-150.0
aF371.1418151855469
aF-57.4113883972168
aF-140.63804626464844
aF19.250967025756836
aF-112.26781463623047
aF-123.20274353027344
aF-33.76201248168945
aF-45.004051208496094
aF-150.0
aF-37.112762451171875
aF-193.40721130371094
aF-247.5200653076172
aF-150.0
aF-150.0
aFnan
aF89.87582397460938
aF-150.0
aF-2.329357624053955
aF-114.84123992919922
aa(lp3
F-362.32965087890625
aF-10.088042259216309
aF1.2112598419189453
aF292.32574462890625
aF-10.153392791748047
aF20.732925415039062
aF-1.1768293380737305
aF-134.20480346679688
aF5.696855545043945
aF104.92052459716797
aF564.4354858398438
aF4.7757697105407715
aF114.91828155517578
aF135.94606018066406
aF6.120456695556641
aF19.83277702331543
aF367.88201904296875
aF0.0
aF-181.6868133544922
aFnan
aFnan
aFnan
aFnan
aFnan
aa.